; Function Attrs: mustprogress nofree norecurse nosync nounwind willreturn memory(read, argmem: readwrite, inaccessiblemem: none) uwtable
define void @_ZN14duckdb_parquet14SizeStatisticsC2Ev(ptr noundef nonnull align 8 captures(none) dereferenceable(65) initializes((0, 64)) %0, ptr noundef readonly captures(none) %1) unnamed_addr #7 align 2 personality ptr @__gxx_personality_v0 {
  %3 = load ptr, ptr %1, align 8
  store ptr %3, ptr %0, align 8, !tbaa !22
  %4 = getelementptr inbounds nuw i8, ptr %1, i64 8
  %5 = load ptr, ptr %4, align 8
  %6 = getelementptr i8, ptr %3, i64 -48
  %7 = load i64, ptr %6, align 8
  %8 = getelementptr inbounds i8, ptr %0, i64 %7
  store ptr %5, ptr %8, align 8, !tbaa !22
  %9 = getelementptr inbounds nuw i8, ptr %0, i64 8
  %10 = getelementptr inbounds nuw i8, ptr %0, i64 64
  tail call void @llvm.memset.p0.i64(ptr noundef nonnull align 8 dereferenceable(56) %9, i8 0, i64 56, i1 false)
  %11 = load i8, ptr %10, align 8
  %12 = and i8 %11, -8
  store i8 %12, ptr %10, align 8
  ret void
}